target datalayout = "e-m:e-p270:32:32-p271:32:32-p272:64:64-i64:64-i128:128-f80:128-n8:16:32:64-S128"
target triple = "x86_64-pc-linux-gnu"

@_ZN3net23CachedNetworkParameters17default_instance_E = global ptr null, align 8
@_ZZN3net54protobuf_AddDesc_cached_5fnetwork_5fparameters_2eprotoEvE12already_here = internal global i8 0, align 1
@.str = private unnamed_addr constant [149 x i8] c"generated/home/dtcxzyw/WorkSpace/Projects/compilers/llvm-opt-benchmark/bench/libquic/libquic/src/net/quic/core/proto/cached_network_parameters.pb.cc\00", align 1
@_ZN3net23CachedNetworkParametersC1Ev = unnamed_addr alias void (ptr), ptr @_ZN3net23CachedNetworkParametersC2Ev

; Function Attrs: mustprogress nounwind uwtable
define void @_ZN3net23CachedNetworkParameters21InitAsDefaultInstanceEv(ptr noundef nonnull align 8 dereferenceable(72) %0) #0 align 2 {
  %2 = alloca ptr, align 8
  store ptr %0, ptr %2, align 8, !tbaa !3
  ret void
}

; Function Attrs: mustprogress uwtable
define void @_ZN3net54protobuf_AddDesc_cached_5fnetwork_5fparameters_2eprotoEv() #1 personality ptr @__gxx_personality_v0 {
  %1 = alloca ptr, align 8
  %2 = alloca i32, align 4
  %3 = load i8, ptr @_ZZN3net54protobuf_AddDesc_cached_5fnetwork_5fparameters_2eprotoEvE12already_here, align 1, !tbaa !10, !range !12, !noundef !13
  %4 = trunc i8 %3 to i1
  br i1 %4, label %5, label %6

5:                                                ; preds = %0
  br label %10

6:                                                ; preds = %0
  store i8 1, ptr @_ZZN3net54protobuf_AddDesc_cached_5fnetwork_5fparameters_2eprotoEvE12already_here, align 1, !tbaa !10
  call void @_ZN6google8protobuf8internal13VerifyVersionEiiPKc(i32 noundef 3000000, i32 noundef 3000000, ptr noundef @.str)
  %7 = call noalias noundef nonnull ptr @_Znwm(i64 noundef 72) #20
  invoke void @_ZN3net23CachedNetworkParametersC1Ev(ptr noundef nonnull align 8 dereferenceable(72) %7)
          to label %8 unwind label %11

8:                                                ; preds = %6
  store ptr %7, ptr @_ZN3net23CachedNetworkParameters17default_instance_E, align 8, !tbaa !3
  %9 = load ptr, ptr @_ZN3net23CachedNetworkParameters17default_instance_E, align 8, !tbaa !3
  call void @_ZN3net23CachedNetworkParameters21InitAsDefaultInstanceEv(ptr noundef nonnull align 8 dereferenceable(72) %9)
  call void @_ZN6google8protobuf8internal10OnShutdownEPFvvE(ptr noundef @_ZN3net59protobuf_ShutdownFile_cached_5fnetwork_5fparameters_2eprotoEv)
  br label %10

10:                                               ; preds = %8, %5
  ret void

11:                                               ; preds = %6
  %12 = landingpad { ptr, i32 }
          cleanup
  %13 = extractvalue { ptr, i32 } %12, 0
  store ptr %13, ptr %1, align 8
  %14 = extractvalue { ptr, i32 } %12, 1
  store i32 %14, ptr %2, align 4
  call void @_ZdlPv(ptr noundef %7) #21
  br label %15

15:                                               ; preds = %11
  %16 = load ptr, ptr %1, align 8
  %17 = load i32, ptr %2, align 4
  %18 = insertvalue { ptr, i32 } poison, ptr %16, 0
  %19 = insertvalue { ptr, i32 } %18, i32 %17, 1
  resume { ptr, i32 } %19
}