; Function Attrs: mustprogress uwtable
define void @_ZN3net54protobuf_AddDesc_cached_5fnetwork_5fparameters_2eprotoEv() local_unnamed_addr #1 personality ptr @__gxx_personality_v0 {
  %.b1 = load i1, ptr @_ZZN3net54protobuf_AddDesc_cached_5fnetwork_5fparameters_2eprotoEvE12already_here, align 1
  br i1 %.b1, label %4, label %1

1:                                                ; preds = %0
  store i1 true, ptr @_ZZN3net54protobuf_AddDesc_cached_5fnetwork_5fparameters_2eprotoEvE12already_here, align 1
  tail call void @_ZN6google8protobuf8internal13VerifyVersionEiiPKc(i32 noundef 3000000, i32 noundef 3000000, ptr noundef nonnull @.str)
  %2 = tail call noalias noundef nonnull dereferenceable(72) ptr @_Znwm(i64 noundef 72) #22
  invoke void @_ZN3net23CachedNetworkParametersC1Ev(ptr noundef nonnull align 8 dereferenceable(72) %2)
          to label %3 unwind label %5

3:                                                ; preds = %1
  store ptr %2, ptr @_ZN3net23CachedNetworkParameters17default_instance_E, align 8, !tbaa !3
  tail call void @_ZN6google8protobuf8internal10OnShutdownEPFvvE(ptr noundef nonnull @_ZN3net59protobuf_ShutdownFile_cached_5fnetwork_5fparameters_2eprotoEv)
  br label %4

4:                                                ; preds = %0, %3
  ret void

5:                                                ; preds = %1
  %6 = landingpad { ptr, i32 }
          cleanup
  tail call void @_ZdlPv(ptr noundef nonnull %2) #23
  resume { ptr, i32 } %6
}